target datalayout = "e-m:e-p270:32:32-p271:32:32-p272:64:64-i64:64-i128:128-f80:128-n8:16:32:64-S128"
target triple = "x86_64-pc-linux-gnu"

%struct.HWContextType = type { i32, ptr, ptr, i64, i64, i64, ptr, ptr, ptr, ptr, ptr, ptr, ptr, ptr, ptr, ptr, ptr, ptr, ptr, ptr, ptr }
%struct.AVBufferRef = type { ptr, ptr, i64 }
%struct.FFHWFramesContext = type { %struct.AVHWFramesContext, ptr, ptr, ptr, i32 }
%struct.AVHWFramesContext = type { ptr, ptr, ptr, ptr, ptr, ptr, ptr, i32, i32, i32, i32, i32 }

; Function Attrs: nounwind uwtable
define i32 @av_hwframe_ctx_create_derived(ptr noundef %0, i32 noundef %1, ptr noundef %2, ptr noundef %3, i32 noundef %4) #0 {
  %6 = alloca i32, align 4
  %7 = alloca ptr, align 8
  %8 = alloca i32, align 4
  %9 = alloca ptr, align 8
  %10 = alloca ptr, align 8
  %11 = alloca i32, align 4
  %12 = alloca ptr, align 8
  %13 = alloca ptr, align 8
  %14 = alloca ptr, align 8
  %15 = alloca ptr, align 8
  %16 = alloca ptr, align 8
  %17 = alloca i32, align 4
  %18 = alloca ptr, align 8
  %19 = alloca ptr, align 8
  %20 = alloca i32, align 4
  store ptr %0, ptr %7, align 8, !tbaa !112
  store i32 %1, ptr %8, align 4, !tbaa !9
  store ptr %2, ptr %9, align 8, !tbaa !28
  store ptr %3, ptr %10, align 8, !tbaa !28
  store i32 %4, ptr %11, align 4, !tbaa !9
  call void @llvm.lifetime.start.p0(i64 8, ptr %12) #5
  store ptr null, ptr %12, align 8, !tbaa !28
  call void @llvm.lifetime.start.p0(i64 8, ptr %13) #5
  store ptr null, ptr %13, align 8, !tbaa !41
  call void @llvm.lifetime.start.p0(i64 8, ptr %14) #5
  %21 = load ptr, ptr %10, align 8, !tbaa !28
  %22 = getelementptr inbounds nuw %struct.AVBufferRef, ptr %21, i32 0, i32 1
  %23 = load ptr, ptr %22, align 8, !tbaa !37
  store ptr %23, ptr %14, align 8, !tbaa !41
  call void @llvm.lifetime.start.p0(i64 8, ptr %15) #5
  call void @llvm.lifetime.start.p0(i64 8, ptr %16) #5
  %24 = load ptr, ptr %14, align 8, !tbaa !41
  %25 = getelementptr inbounds nuw %struct.FFHWFramesContext, ptr %24, i32 0, i32 0
  store ptr %25, ptr %16, align 8, !tbaa !43
  call void @llvm.lifetime.start.p0(i64 4, ptr %17) #5
  %26 = load ptr, ptr %14, align 8, !tbaa !41
  %27 = getelementptr inbounds nuw %struct.FFHWFramesContext, ptr %26, i32 0, i32 3
  %28 = load ptr, ptr %27, align 8, !tbaa !59
  %29 = icmp ne ptr %28, null
  br i1 %29, label %30, label %59

30:                                               ; preds = %5
  call void @llvm.lifetime.start.p0(i64 8, ptr %18) #5
  %31 = load ptr, ptr %14, align 8, !tbaa !41
  %32 = getelementptr inbounds nuw %struct.FFHWFramesContext, ptr %31, i32 0, i32 3
  %33 = load ptr, ptr %32, align 8, !tbaa !59
  %34 = getelementptr inbounds nuw %struct.AVBufferRef, ptr %33, i32 0, i32 1
  %35 = load ptr, ptr %34, align 8, !tbaa !37
  store ptr %35, ptr %18, align 8, !tbaa !43
  call void @llvm.lifetime.start.p0(i64 8, ptr %19) #5
  %36 = load ptr, ptr %9, align 8, !tbaa !28
  %37 = getelementptr inbounds nuw %struct.AVBufferRef, ptr %36, i32 0, i32 1
  %38 = load ptr, ptr %37, align 8, !tbaa !37
  store ptr %38, ptr %19, align 8, !tbaa !22
  %39 = load ptr, ptr %18, align 8, !tbaa !43
  %40 = getelementptr inbounds nuw %struct.AVHWFramesContext, ptr %39, i32 0, i32 2
  %41 = load ptr, ptr %40, align 8, !tbaa !51
  %42 = load ptr, ptr %19, align 8, !tbaa !22
  %43 = icmp eq ptr %41, %42
  br i1 %43, label %44, label %55

44:                                               ; preds = %30
  %45 = load ptr, ptr %14, align 8, !tbaa !41
  %46 = getelementptr inbounds nuw %struct.FFHWFramesContext, ptr %45, i32 0, i32 3
  %47 = load ptr, ptr %46, align 8, !tbaa !59
  %48 = call ptr @av_buffer_ref(ptr noundef %47)
  %49 = load ptr, ptr %7, align 8, !tbaa !112
  store ptr %48, ptr %49, align 8, !tbaa !28
  %50 = load ptr, ptr %7, align 8, !tbaa !112
  %51 = load ptr, ptr %50, align 8, !tbaa !28
  %52 = icmp ne ptr %51, null
  br i1 %52, label %54, label %53

53:                                               ; preds = %44
  store i32 -12, ptr %17, align 4, !tbaa !9
  store i32 2, ptr %20, align 4
  br label %56

54:                                               ; preds = %44
  store i32 0, ptr %6, align 4
  store i32 1, ptr %20, align 4
  br label %56

55:                                               ; preds = %30
  store i32 0, ptr %20, align 4
  br label %56

56:                                               ; preds = %53, %55, %54
  call void @llvm.lifetime.end.p0(i64 8, ptr %19) #5
  call void @llvm.lifetime.end.p0(i64 8, ptr %18) #5
  %57 = load i32, ptr %20, align 4
  switch i32 %57, label %158 [
    i32 0, label %58
    i32 2, label %150
  ]

58:                                               ; preds = %56
  br label %59

59:                                               ; preds = %58, %5
  %60 = load ptr, ptr %9, align 8, !tbaa !28
  %61 = call ptr @av_hwframe_ctx_alloc(ptr noundef %60)
  store ptr %61, ptr %12, align 8, !tbaa !28
  %62 = load ptr, ptr %12, align 8, !tbaa !28
  %63 = icmp ne ptr %62, null
  br i1 %63, label %65, label %64

64:                                               ; preds = %59
  store i32 -12, ptr %17, align 4, !tbaa !9
  br label %150

65:                                               ; preds = %59
  %66 = load ptr, ptr %12, align 8, !tbaa !28
  %67 = getelementptr inbounds nuw %struct.AVBufferRef, ptr %66, i32 0, i32 1
  %68 = load ptr, ptr %67, align 8, !tbaa !37
  store ptr %68, ptr %13, align 8, !tbaa !41
  %69 = load ptr, ptr %13, align 8, !tbaa !41
  %70 = getelementptr inbounds nuw %struct.FFHWFramesContext, ptr %69, i32 0, i32 0
  store ptr %70, ptr %15, align 8, !tbaa !43
  %71 = load i32, ptr %8, align 4, !tbaa !9
  %72 = load ptr, ptr %15, align 8, !tbaa !43
  %73 = getelementptr inbounds nuw %struct.AVHWFramesContext, ptr %72, i32 0, i32 8
  store i32 %71, ptr %73, align 4, !tbaa !52
  %74 = load ptr, ptr %16, align 8, !tbaa !43
  %75 = getelementptr inbounds nuw %struct.AVHWFramesContext, ptr %74, i32 0, i32 9
  %76 = load i32, ptr %75, align 8, !tbaa !53
  %77 = load ptr, ptr %15, align 8, !tbaa !43
  %78 = getelementptr inbounds nuw %struct.AVHWFramesContext, ptr %77, i32 0, i32 9
  store i32 %76, ptr %78, align 8, !tbaa !53
  %79 = load ptr, ptr %16, align 8, !tbaa !43
  %80 = getelementptr inbounds nuw %struct.AVHWFramesContext, ptr %79, i32 0, i32 10
  %81 = load i32, ptr %80, align 4, !tbaa !63
  %82 = load ptr, ptr %15, align 8, !tbaa !43
  %83 = getelementptr inbounds nuw %struct.AVHWFramesContext, ptr %82, i32 0, i32 10
  store i32 %81, ptr %83, align 4, !tbaa !63
  %84 = load ptr, ptr %16, align 8, !tbaa !43
  %85 = getelementptr inbounds nuw %struct.AVHWFramesContext, ptr %84, i32 0, i32 11
  %86 = load i32, ptr %85, align 8, !tbaa !64
  %87 = load ptr, ptr %15, align 8, !tbaa !43
  %88 = getelementptr inbounds nuw %struct.AVHWFramesContext, ptr %87, i32 0, i32 11
  store i32 %86, ptr %88, align 8, !tbaa !64
  %89 = load ptr, ptr %10, align 8, !tbaa !28
  %90 = call ptr @av_buffer_ref(ptr noundef %89)
  %91 = load ptr, ptr %13, align 8, !tbaa !41
  %92 = getelementptr inbounds nuw %struct.FFHWFramesContext, ptr %91, i32 0, i32 3
  store ptr %90, ptr %92, align 8, !tbaa !59
  %93 = load ptr, ptr %13, align 8, !tbaa !41
  %94 = getelementptr inbounds nuw %struct.FFHWFramesContext, ptr %93, i32 0, i32 3
  %95 = load ptr, ptr %94, align 8, !tbaa !59
  %96 = icmp ne ptr %95, null
  br i1 %96, label %98, label %97

97:                                               ; preds = %65
  store i32 -12, ptr %17, align 4, !tbaa !9
  br label %150

98:                                               ; preds = %65
  %99 = load i32, ptr %11, align 4, !tbaa !9
  %100 = and i32 %99, 15
  %101 = load ptr, ptr %13, align 8, !tbaa !41
  %102 = getelementptr inbounds nuw %struct.FFHWFramesContext, ptr %101, i32 0, i32 4
  store i32 %100, ptr %102, align 8, !tbaa !90
  store i32 -38, ptr %17, align 4, !tbaa !9
  %103 = load ptr, ptr %14, align 8, !tbaa !41
  %104 = getelementptr inbounds nuw %struct.FFHWFramesContext, ptr %103, i32 0, i32 1
  %105 = load ptr, ptr %104, align 8, !tbaa !54
  %106 = getelementptr inbounds nuw %struct.HWContextType, ptr %105, i32 0, i32 20
  %107 = load ptr, ptr %106, align 8, !tbaa !123
  %108 = icmp ne ptr %107, null
  br i1 %108, label %109, label %119

109:                                              ; preds = %98
  %110 = load ptr, ptr %14, align 8, !tbaa !41
  %111 = getelementptr inbounds nuw %struct.FFHWFramesContext, ptr %110, i32 0, i32 1
  %112 = load ptr, ptr %111, align 8, !tbaa !54
  %113 = getelementptr inbounds nuw %struct.HWContextType, ptr %112, i32 0, i32 20
  %114 = load ptr, ptr %113, align 8, !tbaa !123
  %115 = load ptr, ptr %15, align 8, !tbaa !43
  %116 = load ptr, ptr %16, align 8, !tbaa !43
  %117 = load i32, ptr %11, align 4, !tbaa !9
  %118 = call i32 %114(ptr noundef %115, ptr noundef %116, i32 noundef %117)
  store i32 %118, ptr %17, align 4, !tbaa !9
  br label %119

119:                                              ; preds = %109, %98
  %120 = load i32, ptr %17, align 4, !tbaa !9
  %121 = icmp eq i32 %120, -38
  br i1 %121, label %122, label %139

122:                                              ; preds = %119
  %123 = load ptr, ptr %13, align 8, !tbaa !41
  %124 = getelementptr inbounds nuw %struct.FFHWFramesContext, ptr %123, i32 0, i32 1
  %125 = load ptr, ptr %124, align 8, !tbaa !54
  %126 = getelementptr inbounds nuw %struct.HWContextType, ptr %125, i32 0, i32 19
  %127 = load ptr, ptr %126, align 8, !tbaa !124
  %128 = icmp ne ptr %127, null
  br i1 %128, label %129, label %139

129:                                              ; preds = %122
  %130 = load ptr, ptr %13, align 8, !tbaa !41
  %131 = getelementptr inbounds nuw %struct.FFHWFramesContext, ptr %130, i32 0, i32 1
  %132 = load ptr, ptr %131, align 8, !tbaa !54
  %133 = getelementptr inbounds nuw %struct.HWContextType, ptr %132, i32 0, i32 19
  %134 = load ptr, ptr %133, align 8, !tbaa !124
  %135 = load ptr, ptr %15, align 8, !tbaa !43
  %136 = load ptr, ptr %16, align 8, !tbaa !43
  %137 = load i32, ptr %11, align 4, !tbaa !9
  %138 = call i32 %134(ptr noundef %135, ptr noundef %136, i32 noundef %137)
  store i32 %138, ptr %17, align 4, !tbaa !9
  br label %139

139:                                              ; preds = %129, %122, %119
  %140 = load i32, ptr %17, align 4, !tbaa !9
  %141 = icmp eq i32 %140, -38
  br i1 %141, label %142, label %143

142:                                              ; preds = %139
  store i32 0, ptr %17, align 4, !tbaa !9
  br label %143

143:                                              ; preds = %142, %139
  %144 = load i32, ptr %17, align 4, !tbaa !9
  %145 = icmp ne i32 %144, 0
  br i1 %145, label %146, label %147

146:                                              ; preds = %143
  br label %150

147:                                              ; preds = %143
  %148 = load ptr, ptr %12, align 8, !tbaa !28
  %149 = load ptr, ptr %7, align 8, !tbaa !112
  store ptr %148, ptr %149, align 8, !tbaa !28
  store i32 0, ptr %6, align 4
  store i32 1, ptr %20, align 4
  br label %158

150:                                              ; preds = %56, %146, %97, %64
  %151 = load ptr, ptr %13, align 8, !tbaa !41
  %152 = icmp ne ptr %151, null
  br i1 %152, label %153, label %156

153:                                              ; preds = %150
  %154 = load ptr, ptr %13, align 8, !tbaa !41
  %155 = getelementptr inbounds nuw %struct.FFHWFramesContext, ptr %154, i32 0, i32 3
  call void @av_buffer_unref(ptr noundef %155)
  br label %156

156:                                              ; preds = %153, %150
  call void @av_buffer_unref(ptr noundef %12)
  %157 = load i32, ptr %17, align 4, !tbaa !9
  store i32 %157, ptr %6, align 4
  store i32 1, ptr %20, align 4
  br label %158

158:                                              ; preds = %156, %147, %56
  call void @llvm.lifetime.end.p0(i64 4, ptr %17) #5
  call void @llvm.lifetime.end.p0(i64 8, ptr %16) #5
  call void @llvm.lifetime.end.p0(i64 8, ptr %15) #5
  call void @llvm.lifetime.end.p0(i64 8, ptr %14) #5
  call void @llvm.lifetime.end.p0(i64 8, ptr %13) #5
  call void @llvm.lifetime.end.p0(i64 8, ptr %12) #5
  %159 = load i32, ptr %6, align 4
  ret i32 %159
}