; Function Attrs: nounwind uwtable
define range(i32 -37, -38) i32 @av_hwframe_ctx_create_derived(ptr noundef writeonly captures(none) %0, i32 noundef %1, ptr noundef %2, ptr noundef %3, i32 noundef %4) local_unnamed_addr #5 {
  %6 = alloca ptr, align 8
  call void @llvm.lifetime.start.p0(i64 8, ptr nonnull %6) #11
  store ptr null, ptr %6, align 8, !tbaa !36
  %7 = getelementptr inbounds nuw i8, ptr %3, i64 8
  %8 = load ptr, ptr %7, align 8, !tbaa !32
  %9 = getelementptr inbounds nuw i8, ptr %8, i64 96
  %10 = load ptr, ptr %9, align 8, !tbaa !53
  %.not = icmp eq ptr %10, null
  br i1 %.not, label %.thread59, label %11

11:                                               ; preds = %5
  %12 = getelementptr inbounds nuw i8, ptr %10, i64 8
  %13 = load ptr, ptr %12, align 8, !tbaa !32
  %14 = getelementptr inbounds nuw i8, ptr %2, i64 8
  %15 = load ptr, ptr %14, align 8, !tbaa !32
  %16 = getelementptr inbounds nuw i8, ptr %13, i64 16
  %17 = load ptr, ptr %16, align 8, !tbaa !45
  %18 = icmp eq ptr %17, %15
  br i1 %18, label %19, label %.thread59

19:                                               ; preds = %11
  %20 = tail call ptr @av_buffer_ref(ptr noundef nonnull %10) #11
  store ptr %20, ptr %0, align 8, !tbaa !36
  %.not51 = icmp eq ptr %20, null
  br i1 %.not51, label %.thread71, label %.thread

.thread59:                                        ; preds = %11, %5
  %21 = tail call ptr @av_hwframe_ctx_alloc(ptr noundef %2)
  store ptr %21, ptr %6, align 8, !tbaa !36
  %.not52 = icmp eq ptr %21, null
  br i1 %.not52, label %.thread71, label %22

22:                                               ; preds = %.thread59
  %23 = getelementptr inbounds nuw i8, ptr %21, i64 8
  %24 = load ptr, ptr %23, align 8, !tbaa !32
  %25 = getelementptr inbounds nuw i8, ptr %24, i64 60
  store i32 %1, ptr %25, align 4, !tbaa !46
  %26 = getelementptr inbounds nuw i8, ptr %8, i64 64
  %27 = load i32, ptr %26, align 8, !tbaa !47
  %28 = getelementptr inbounds nuw i8, ptr %24, i64 64
  store i32 %27, ptr %28, align 8, !tbaa !47
  %29 = getelementptr inbounds nuw i8, ptr %8, i64 68
  %30 = load i32, ptr %29, align 4, !tbaa !58
  %31 = getelementptr inbounds nuw i8, ptr %24, i64 68
  store i32 %30, ptr %31, align 4, !tbaa !58
  %32 = getelementptr inbounds nuw i8, ptr %8, i64 72
  %33 = load i32, ptr %32, align 8, !tbaa !59
  %34 = getelementptr inbounds nuw i8, ptr %24, i64 72
  store i32 %33, ptr %34, align 8, !tbaa !59
  %35 = tail call ptr @av_buffer_ref(ptr noundef nonnull %3) #11
  %36 = getelementptr inbounds nuw i8, ptr %24, i64 96
  store ptr %35, ptr %36, align 8, !tbaa !53
  %.not53 = icmp eq ptr %35, null
  br i1 %.not53, label %55, label %37

37:                                               ; preds = %22
  %38 = and i32 %4, 15
  %39 = getelementptr inbounds nuw i8, ptr %24, i64 104
  store i32 %38, ptr %39, align 8, !tbaa !85
  %40 = getelementptr inbounds nuw i8, ptr %8, i64 80
  %41 = load ptr, ptr %40, align 8, !tbaa !48
  %42 = getelementptr inbounds nuw i8, ptr %41, i64 160
  %43 = load ptr, ptr %42, align 8, !tbaa !112
  %.not54 = icmp eq ptr %43, null
  br i1 %.not54, label %.thread61, label %44

44:                                               ; preds = %37
  %45 = tail call i32 %43(ptr noundef nonnull %24, ptr noundef nonnull %8, i32 noundef %4) #11
  %46 = icmp eq i32 %45, -38
  br i1 %46, label %.thread61, label %.thread66

.thread61:                                        ; preds = %37, %44
  %47 = getelementptr inbounds nuw i8, ptr %24, i64 80
  %48 = load ptr, ptr %47, align 8, !tbaa !48
  %49 = getelementptr inbounds nuw i8, ptr %48, i64 152
  %50 = load ptr, ptr %49, align 8, !tbaa !113
  %.not55 = icmp eq ptr %50, null
  br i1 %.not55, label %.thread69, label %51

51:                                               ; preds = %.thread61
  %52 = tail call i32 %50(ptr noundef nonnull %24, ptr noundef nonnull %8, i32 noundef %4) #11
  %.fr = freeze i32 %52
  %53 = icmp eq i32 %.fr, -38
  br i1 %53, label %.thread69, label %.thread66

.thread66:                                        ; preds = %44, %51
  %54 = phi i32 [ %.fr, %51 ], [ %45, %44 ]
  %.not56 = icmp eq i32 %54, 0
  br i1 %.not56, label %.thread69, label %55

.thread69:                                        ; preds = %.thread61, %51, %.thread66
  store ptr %21, ptr %0, align 8, !tbaa !36
  br label %.thread

55:                                               ; preds = %.thread66, %22
  %.146 = phi i32 [ %54, %.thread66 ], [ -12, %22 ]
  tail call void @av_buffer_unref(ptr noundef nonnull %36) #11
  br label %.thread71

.thread71:                                        ; preds = %19, %.thread59, %55
  %.14675 = phi i32 [ %.146, %55 ], [ -12, %.thread59 ], [ -12, %19 ]
  call void @av_buffer_unref(ptr noundef nonnull %6) #11
  br label %.thread

.thread:                                          ; preds = %19, %.thread71, %.thread69
  %.1 = phi i32 [ %.14675, %.thread71 ], [ 0, %.thread69 ], [ 0, %19 ]
  call void @llvm.lifetime.end.p0(i64 8, ptr nonnull %6) #11
  ret i32 %.1
}